target datalayout = "e-m:e-p270:32:32-p271:32:32-p272:64:64-i64:64-i128:128-f80:128-n8:16:32:64-S128"
target triple = "x86_64-pc-linux-gnu"

%struct.bitmap = type { ptr, i64 }

; Function Attrs: inlinehint nounwind uwtable
define internal i32 @ewah_bit_popcount64(i64 noundef %0) #3 {
  %2 = alloca i64, align 8
  store i64 %0, ptr %2, align 8, !tbaa !4
  %3 = load i64, ptr %2, align 8, !tbaa !4
  %4 = and i64 %3, 6148914691236517205
  %5 = load i64, ptr %2, align 8, !tbaa !4
  %6 = lshr i64 %5, 1
  %7 = and i64 %6, 6148914691236517205
  %8 = add i64 %4, %7
  store i64 %8, ptr %2, align 8, !tbaa !4
  %9 = load i64, ptr %2, align 8, !tbaa !4
  %10 = and i64 %9, 3689348814741910323
  %11 = load i64, ptr %2, align 8, !tbaa !4
  %12 = lshr i64 %11, 2
  %13 = and i64 %12, 3689348814741910323
  %14 = add i64 %10, %13
  store i64 %14, ptr %2, align 8, !tbaa !4
  %15 = load i64, ptr %2, align 8, !tbaa !4
  %16 = and i64 %15, 1085102592571150095
  %17 = load i64, ptr %2, align 8, !tbaa !4
  %18 = lshr i64 %17, 4
  %19 = and i64 %18, 1085102592571150095
  %20 = add i64 %16, %19
  store i64 %20, ptr %2, align 8, !tbaa !4
  %21 = load i64, ptr %2, align 8, !tbaa !4
  %22 = mul i64 %21, 72340172838076673
  %23 = lshr i64 %22, 56
  %24 = trunc i64 %23 to i32
  ret i32 %24
}

; Function Attrs: nounwind uwtable
define dso_local i64 @bitmap_popcount(ptr noundef %0) #0 {
  %2 = alloca ptr, align 8
  %3 = alloca i64, align 8
  %4 = alloca i64, align 8
  store ptr %0, ptr %2, align 8, !tbaa !8
  call void @llvm.lifetime.start.p0(i64 8, ptr %3) #8
  call void @llvm.lifetime.start.p0(i64 8, ptr %4) #8
  store i64 0, ptr %4, align 8, !tbaa !4
  store i64 0, ptr %3, align 8, !tbaa !4
  br label %5

5:                                                ; preds = %22, %1
  %6 = load i64, ptr %3, align 8, !tbaa !4
  %7 = load ptr, ptr %2, align 8, !tbaa !8
  %8 = getelementptr inbounds nuw %struct.bitmap, ptr %7, i32 0, i32 1
  %9 = load i64, ptr %8, align 8, !tbaa !14
  %10 = icmp ult i64 %6, %9
  br i1 %10, label %11, label %25

11:                                               ; preds = %5
  %12 = load ptr, ptr %2, align 8, !tbaa !8
  %13 = getelementptr inbounds nuw %struct.bitmap, ptr %12, i32 0, i32 0
  %14 = load ptr, ptr %13, align 8, !tbaa !11
  %15 = load i64, ptr %3, align 8, !tbaa !4
  %16 = getelementptr inbounds nuw i64, ptr %14, i64 %15
  %17 = load i64, ptr %16, align 8, !tbaa !4
  %18 = call i32 @ewah_bit_popcount64(i64 noundef %17)
  %19 = zext i32 %18 to i64
  %20 = load i64, ptr %4, align 8, !tbaa !4
  %21 = add i64 %20, %19
  store i64 %21, ptr %4, align 8, !tbaa !4
  br label %22

22:                                               ; preds = %11
  %23 = load i64, ptr %3, align 8, !tbaa !4
  %24 = add i64 %23, 1
  store i64 %24, ptr %3, align 8, !tbaa !4
  br label %5, !llvm.loop !28

25:                                               ; preds = %5
  %26 = load i64, ptr %4, align 8, !tbaa !4
  call void @llvm.lifetime.end.p0(i64 8, ptr %4) #8
  call void @llvm.lifetime.end.p0(i64 8, ptr %3) #8
  ret i64 %26
}