; Function Attrs: nofree norecurse nosync nounwind memory(read, inaccessiblemem: none) uwtable
define dso_local i64 @bitmap_popcount(ptr noundef readonly captures(none) %0) local_unnamed_addr #7 {
  %2 = getelementptr inbounds nuw i8, ptr %0, i64 8
  %3 = load i64, ptr %2, align 8, !tbaa !11
  %.not = icmp eq i64 %3, 0
  br i1 %.not, label %._crit_edge, label %.lr.ph

.lr.ph:                                           ; preds = %1
  %4 = load ptr, ptr %0, align 8, !tbaa !4
  br label %5

5:                                                ; preds = %.lr.ph, %5
  %.08 = phi i64 [ 0, %.lr.ph ], [ %22, %5 ]
  %.067 = phi i64 [ 0, %.lr.ph ], [ %23, %5 ]
  %6 = getelementptr inbounds nuw i64, ptr %4, i64 %.067
  %7 = load i64, ptr %6, align 8, !tbaa !12
  %8 = and i64 %7, 6148914691236517205
  %9 = lshr i64 %7, 1
  %10 = and i64 %9, 6148914691236517205
  %11 = add nuw i64 %10, %8
  %12 = and i64 %11, 3689348814741910323
  %13 = lshr i64 %11, 2
  %14 = and i64 %13, 3689348814741910323
  %15 = add nuw nsw i64 %14, %12
  %16 = and i64 %15, 506381209866536711
  %17 = lshr i64 %15, 4
  %18 = and i64 %17, 506381209866536711
  %19 = add nuw nsw i64 %18, %16
  %20 = mul i64 %19, 72340172838076673
  %21 = lshr i64 %20, 56
  %22 = add i64 %21, %.08
  %23 = add nuw i64 %.067, 1
  %exitcond.not = icmp eq i64 %23, %3
  br i1 %exitcond.not, label %._crit_edge, label %5, !llvm.loop !23

._crit_edge:                                      ; preds = %5, %1
  %.0.lcssa = phi i64 [ 0, %1 ], [ %22, %5 ]
  ret i64 %.0.lcssa
}